target datalayout = "e-m:e-p270:32:32-p271:32:32-p272:64:64-i64:64-i128:128-f80:128-n8:16:32:64-S128"
target triple = "x86_64-pc-linux-gnu"

%"class.llvm::SmallVectorBase" = type { ptr, i32, i32 }
%"class.llvm::StringRef" = type { ptr, i64 }
%"struct.clang::format::FormatToken" = type <{ %"class.clang::Token", %"class.llvm::StringRef", %"class.std::shared_ptr", %"class.clang::SourceRange", i8, i16, i8, i32, i32, i32, i32, i32, i32, i32, i32, i32, i16, [2 x i8], i32, i32, i32, i32, i32, i32, i32, i32, i32, i32, [4 x i8], %"class.llvm::SmallVector.11", i32, i32, ptr, ptr, ptr, ptr, i8, i8, i8, i8, i8, i8, [2 x i8], %"class.llvm::SmallVector.16", %"class.std::optional.21", i8, [7 x i8] }>
%"class.clang::Token" = type <{ i32, i32, ptr, i16, i16, [4 x i8] }>
%"class.std::shared_ptr" = type { %"class.std::__shared_ptr" }
%"class.std::__shared_ptr" = type { ptr, %"class.std::__shared_count" }
%"class.std::__shared_count" = type { ptr }
%"class.clang::SourceRange" = type { %"class.clang::SourceLocation", %"class.clang::SourceLocation" }
%"class.clang::SourceLocation" = type { i32 }
%"class.llvm::SmallVector.11" = type { %"class.llvm::SmallVectorImpl.12", %"struct.llvm::SmallVectorStorage.15" }
%"class.llvm::SmallVectorImpl.12" = type { %"class.llvm::SmallVectorTemplateBase.13" }
%"class.llvm::SmallVectorTemplateBase.13" = type { %"class.llvm::SmallVectorTemplateCommon.14" }
%"class.llvm::SmallVectorTemplateCommon.14" = type { %"class.llvm::SmallVectorBase" }
%"struct.llvm::SmallVectorStorage.15" = type { [16 x i8] }
%"class.llvm::SmallVector.16" = type { %"class.llvm::SmallVectorImpl.17", %"struct.llvm::SmallVectorStorage.20" }
%"class.llvm::SmallVectorImpl.17" = type { %"class.llvm::SmallVectorTemplateBase.18" }
%"class.llvm::SmallVectorTemplateBase.18" = type { %"class.llvm::SmallVectorTemplateCommon.19" }
%"class.llvm::SmallVectorTemplateCommon.19" = type { %"class.llvm::SmallVectorBase" }
%"struct.llvm::SmallVectorStorage.20" = type { [8 x i8] }
%"class.std::optional.21" = type { %"struct.std::_Optional_base.22" }
%"struct.std::_Optional_base.22" = type { %"struct.std::_Optional_payload.24" }
%"struct.std::_Optional_payload.24" = type { %"struct.std::_Optional_payload.base.33", [7 x i8] }
%"struct.std::_Optional_payload.base.33" = type { %"struct.std::_Optional_payload_base.base.32" }
%"struct.std::_Optional_payload_base.base.32" = type <{ %"union.std::_Optional_payload_base<clang::format::MacroExpansion>::_Storage", i8 }>
%"union.std::_Optional_payload_base<clang::format::MacroExpansion>::_Storage" = type { %"struct.clang::format::MacroExpansion" }
%"struct.clang::format::MacroExpansion" = type { i32, %"class.llvm::SmallVector.27", i32, i32 }
%"class.llvm::SmallVector.27" = type { %"class.llvm::SmallVectorImpl.28", %"struct.llvm::SmallVectorStorage.31" }
%"class.llvm::SmallVectorImpl.28" = type { %"class.llvm::SmallVectorTemplateBase.29" }
%"class.llvm::SmallVectorTemplateBase.29" = type { %"class.llvm::SmallVectorTemplateCommon.30" }
%"class.llvm::SmallVectorTemplateCommon.30" = type { %"class.llvm::SmallVectorBase" }
%"struct.llvm::SmallVectorStorage.31" = type { [8 x i8] }
%"struct.clang::format::FormatStyle" = type { i8, i32, i8, i8, %"struct.clang::format::FormatStyle::AlignConsecutiveStyle", %"struct.clang::format::FormatStyle::AlignConsecutiveStyle", %"struct.clang::format::FormatStyle::AlignConsecutiveStyle", %"struct.clang::format::FormatStyle::AlignConsecutiveStyle", %"struct.clang::format::FormatStyle::ShortCaseStatementsAlignmentStyle", %"struct.clang::format::FormatStyle::AlignConsecutiveStyle", %"struct.clang::format::FormatStyle::AlignConsecutiveStyle", %"struct.clang::format::FormatStyle::AlignConsecutiveStyle", i8, i8, %"struct.clang::format::FormatStyle::TrailingCommentsAlignmentStyle", i8, i8, i8, i8, i8, i8, i8, i8, i8, i8, i8, i8, i8, i8, %"class.std::vector", i8, i8, i8, i8, %"class.std::optional.36", %"struct.clang::format::FormatStyle::BraceWrappingFlags", i8, i8, i8, i8, i8, i8, i8, i8, i8, i8, i8, i8, i8, i8, i32, %"class.std::__cxx11::basic_string", i8, i8, i8, i32, i32, i8, i8, i8, i8, i8, i8, i8, %"class.std::vector", %"struct.clang::tooling::IncludeStyle", %"class.std::vector", i8, i8, i8, i8, i8, i8, i8, i32, i8, i8, i8, i8, %"struct.clang::format::FormatStyle::IntegerLiteralSeparatorStyle", %"class.std::vector", i8, i8, %"struct.clang::format::FormatStyle::KeepEmptyLinesStyle", i8, i8, i8, %"class.std::__cxx11::basic_string", %"class.std::__cxx11::basic_string", %"class.std::vector", i32, i8, %"class.std::vector", i8, i32, i8, %"class.std::vector", i8, i8, i8, i32, i32, i32, i32, i32, i32, i32, i32, i32, i32, i32, i8, i32, i8, %"class.std::vector", %"class.std::vector.49", i8, i8, i8, i8, i8, i8, i8, i8, i32, i8, i8, i8, i8, i8, i8, i8, i8, i8, i8, i8, i8, i8, i8, i8, %"struct.clang::format::FormatStyle::SpaceBeforeParensCustom", i8, i8, i8, i32, i8, i8, %"struct.clang::format::FormatStyle::SpacesInLineComment", i8, %"struct.clang::format::FormatStyle::SpacesInParensCustom", i8, i8, %"class.std::vector", %"class.std::vector", %"class.std::vector", i8, i32, %"class.std::vector", %"class.std::vector", i8, i8, %"class.std::vector", %"struct.clang::format::FormatStyle::FormatStyleSet" }
%"struct.clang::format::FormatStyle::ShortCaseStatementsAlignmentStyle" = type { i8, i8, i8, i8, i8 }
%"struct.clang::format::FormatStyle::AlignConsecutiveStyle" = type { i8, i8, i8, i8, i8, i8 }
%"struct.clang::format::FormatStyle::TrailingCommentsAlignmentStyle" = type { i8, i32 }
%"class.std::optional.36" = type { %"struct.std::_Optional_base.37" }
%"struct.std::_Optional_base.37" = type { %"struct.std::_Optional_payload.39" }
%"struct.std::_Optional_payload.39" = type { %"struct.std::_Optional_payload_base.base.41", [3 x i8] }
%"struct.std::_Optional_payload_base.base.41" = type <{ %"union.std::_Optional_payload_base<unsigned int>::_Storage", i8 }>
%"union.std::_Optional_payload_base<unsigned int>::_Storage" = type { i32 }
%"struct.clang::format::FormatStyle::BraceWrappingFlags" = type { i8, i8, i8, i8, i8, i8, i8, i8, i8, i8, i8, i8, i8, i8, i8, i8, i8, i8 }
%"struct.clang::tooling::IncludeStyle" = type <{ i32, [4 x i8], %"class.std::vector.44", %"class.std::__cxx11::basic_string", %"class.std::__cxx11::basic_string", i8, [7 x i8] }>
%"class.std::vector.44" = type { %"struct.std::_Vector_base.45" }
%"struct.std::_Vector_base.45" = type { %"struct.std::_Vector_base<clang::tooling::IncludeStyle::IncludeCategory, std::allocator<clang::tooling::IncludeStyle::IncludeCategory>>::_Vector_impl" }
%"struct.std::_Vector_base<clang::tooling::IncludeStyle::IncludeCategory, std::allocator<clang::tooling::IncludeStyle::IncludeCategory>>::_Vector_impl" = type { %"struct.std::_Vector_base<clang::tooling::IncludeStyle::IncludeCategory, std::allocator<clang::tooling::IncludeStyle::IncludeCategory>>::_Vector_impl_data" }
%"struct.std::_Vector_base<clang::tooling::IncludeStyle::IncludeCategory, std::allocator<clang::tooling::IncludeStyle::IncludeCategory>>::_Vector_impl_data" = type { ptr, ptr, ptr }
%"struct.clang::format::FormatStyle::IntegerLiteralSeparatorStyle" = type { i8, i8, i8, i8, i8, i8 }
%"struct.clang::format::FormatStyle::KeepEmptyLinesStyle" = type { i8, i8, i8 }
%"class.std::__cxx11::basic_string" = type { %"struct.std::__cxx11::basic_string<char>::_Alloc_hider", i64, %union.anon }
%"struct.std::__cxx11::basic_string<char>::_Alloc_hider" = type { ptr }
%union.anon = type { i64, [8 x i8] }
%"class.std::vector.49" = type { %"struct.std::_Vector_base.50" }
%"struct.std::_Vector_base.50" = type { %"struct.std::_Vector_base<clang::format::FormatStyle::RawStringFormat, std::allocator<clang::format::FormatStyle::RawStringFormat>>::_Vector_impl" }
%"struct.std::_Vector_base<clang::format::FormatStyle::RawStringFormat, std::allocator<clang::format::FormatStyle::RawStringFormat>>::_Vector_impl" = type { %"struct.std::_Vector_base<clang::format::FormatStyle::RawStringFormat, std::allocator<clang::format::FormatStyle::RawStringFormat>>::_Vector_impl_data" }
%"struct.std::_Vector_base<clang::format::FormatStyle::RawStringFormat, std::allocator<clang::format::FormatStyle::RawStringFormat>>::_Vector_impl_data" = type { ptr, ptr, ptr }
%"struct.clang::format::FormatStyle::SpaceBeforeParensCustom" = type { i8, i8, i8, i8, i8, i8, i8, i8, i8, i8 }
%"struct.clang::format::FormatStyle::SpacesInLineComment" = type { i32, i32 }
%"struct.clang::format::FormatStyle::SpacesInParensCustom" = type { i8, i8, i8, i8, i8 }
%"class.std::vector" = type { %"struct.std::_Vector_base" }
%"struct.std::_Vector_base" = type { %"struct.std::_Vector_base<std::__cxx11::basic_string<char>, std::allocator<std::__cxx11::basic_string<char>>>::_Vector_impl" }
%"struct.std::_Vector_base<std::__cxx11::basic_string<char>, std::allocator<std::__cxx11::basic_string<char>>>::_Vector_impl" = type { %"struct.std::_Vector_base<std::__cxx11::basic_string<char>, std::allocator<std::__cxx11::basic_string<char>>>::_Vector_impl_data" }
%"struct.std::_Vector_base<std::__cxx11::basic_string<char>, std::allocator<std::__cxx11::basic_string<char>>>::_Vector_impl_data" = type { ptr, ptr, ptr }
%"struct.clang::format::FormatStyle::FormatStyleSet" = type { %"class.std::shared_ptr.54" }
%"class.std::shared_ptr.54" = type { %"class.std::__shared_ptr.55" }
%"class.std::__shared_ptr.55" = type { ptr, %"class.std::__shared_count" }

; Function Attrs: mustprogress nounwind uwtable
define linkonce_odr hidden noundef zeroext i1 @_ZNK5clang5Token2isENS_3tok9TokenKindE(ptr noundef nonnull align 8 dereferenceable(20) %0, i16 noundef zeroext %1) #0 comdat align 2 {
  %3 = alloca ptr, align 8
  %4 = alloca i16, align 2
  store ptr %0, ptr %3, align 8
  store i16 %1, ptr %4, align 2
  %5 = load ptr, ptr %3, align 8
  %6 = getelementptr inbounds nuw %"class.clang::Token", ptr %5, i32 0, i32 3
  %7 = load i16, ptr %6, align 8
  %8 = zext i16 %7 to i32
  %9 = load i16, ptr %4, align 2
  %10 = zext i16 %9 to i32
  %11 = icmp eq i32 %8, %10
  ret i1 %11
}

; Function Attrs: mustprogress nounwind uwtable
define linkonce_odr hidden noundef zeroext i8 @_ZNK5clang6format11FormatToken7getTypeEv(ptr noundef nonnull align 8 dereferenceable(305) %0) #0 comdat align 2 {
  %2 = alloca ptr, align 8
  store ptr %0, ptr %2, align 8
  %3 = load ptr, ptr %2, align 8
  %4 = getelementptr inbounds nuw %"struct.clang::format::FormatToken", ptr %3, i32 0, i32 6
  %5 = load i8, ptr %4, align 1
  ret i8 %5
}

; Function Attrs: mustprogress nounwind uwtable
define linkonce_odr hidden noundef zeroext i1 @_ZNK5clang6format11FormatToken5isNotINS0_9TokenTypeEEEbT_(ptr noundef nonnull align 8 dereferenceable(305) %0, i8 noundef zeroext %1) #0 comdat align 2 {
  %3 = alloca ptr, align 8
  %4 = alloca i8, align 1
  store ptr %0, ptr %3, align 8
  store i8 %1, ptr %4, align 1
  %5 = load ptr, ptr %3, align 8
  %6 = load i8, ptr %4, align 1
  %7 = call noundef zeroext i1 @_ZNK5clang6format11FormatToken2isENS0_9TokenTypeE(ptr noundef nonnull align 8 dereferenceable(305) %5, i8 noundef zeroext %6)
  %8 = xor i1 %7, true
  ret i1 %8
}

; Function Attrs: mustprogress nounwind uwtable
define linkonce_odr hidden noundef zeroext i1 @_ZNK5clang6format11FormatToken17isTrailingCommentEv(ptr noundef nonnull align 8 dereferenceable(305) %0) #0 comdat align 2 {
  %2 = alloca ptr, align 8
  store ptr %0, ptr %2, align 8
  %3 = load ptr, ptr %2, align 8
  %4 = call noundef zeroext i1 @_ZNK5clang6format11FormatToken2isENS_3tok9TokenKindE(ptr noundef nonnull align 8 dereferenceable(305) %3, i16 noundef zeroext 4)
  br i1 %4, label %5, label %19

5:                                                ; preds = %1
  %6 = call noundef zeroext i1 @_ZNK5clang6format11FormatToken2isENS0_9TokenTypeE(ptr noundef nonnull align 8 dereferenceable(305) %3, i8 noundef zeroext 75)
  br i1 %6, label %17, label %7

7:                                                ; preds = %5
  %8 = getelementptr inbounds nuw %"struct.clang::format::FormatToken", ptr %3, i32 0, i32 35
  %9 = load ptr, ptr %8, align 8
  %10 = icmp ne ptr %9, null
  br i1 %10, label %11, label %17

11:                                               ; preds = %7
  %12 = getelementptr inbounds nuw %"struct.clang::format::FormatToken", ptr %3, i32 0, i32 35
  %13 = load ptr, ptr %12, align 8
  %14 = getelementptr inbounds nuw %"struct.clang::format::FormatToken", ptr %13, i32 0, i32 8
  %15 = load i32, ptr %14, align 8
  %16 = icmp ugt i32 %15, 0
  br label %17

17:                                               ; preds = %11, %7, %5
  %18 = phi i1 [ true, %7 ], [ true, %5 ], [ %16, %11 ]
  br label %19

19:                                               ; preds = %17, %1
  %20 = phi i1 [ false, %1 ], [ %18, %17 ]
  ret i1 %20
}

; Function Attrs: mustprogress nounwind uwtable
define linkonce_odr hidden noundef zeroext i1 @_ZNK5clang6format11FormatToken2isENS_3tok9TokenKindE(ptr noundef nonnull align 8 dereferenceable(305) %0, i16 noundef zeroext %1) #0 comdat align 2 {
  %3 = alloca ptr, align 8
  %4 = alloca i16, align 2
  store ptr %0, ptr %3, align 8
  store i16 %1, ptr %4, align 2
  %5 = load ptr, ptr %3, align 8
  %6 = getelementptr inbounds nuw %"struct.clang::format::FormatToken", ptr %5, i32 0, i32 0
  %7 = load i16, ptr %4, align 2
  %8 = call noundef zeroext i1 @_ZNK5clang5Token2isENS_3tok9TokenKindE(ptr noundef nonnull align 8 dereferenceable(20) %6, i16 noundef zeroext %7)
  ret i1 %8
}

; Function Attrs: mustprogress nounwind uwtable
define linkonce_odr hidden noundef zeroext i1 @_ZNK5clang6format11FormatToken2isENS0_9TokenTypeE(ptr noundef nonnull align 8 dereferenceable(305) %0, i8 noundef zeroext %1) #0 comdat align 2 {
  %3 = alloca ptr, align 8
  %4 = alloca i8, align 1
  store ptr %0, ptr %3, align 8
  store i8 %1, ptr %4, align 1
  %5 = load ptr, ptr %3, align 8
  %6 = call noundef zeroext i8 @_ZNK5clang6format11FormatToken7getTypeEv(ptr noundef nonnull align 8 dereferenceable(305) %5)
  %7 = zext i8 %6 to i32
  %8 = load i8, ptr %4, align 1
  %9 = zext i8 %8 to i32
  %10 = icmp eq i32 %7, %9
  ret i1 %10
}

; Function Attrs: mustprogress nounwind uwtable
define dso_local noundef zeroext i1 @_ZN5clang6format19startsNextParameterERKNS0_11FormatTokenERKNS0_11FormatStyleE(ptr noundef nonnull align 8 dereferenceable(305) %0, ptr noundef nonnull align 8 dereferenceable(936) %1) #0 {
  %3 = alloca i1, align 1
  %4 = alloca ptr, align 8
  %5 = alloca ptr, align 8
  %6 = alloca ptr, align 8
  store ptr %0, ptr %4, align 8
  store ptr %1, ptr %5, align 8
  %7 = load ptr, ptr %4, align 8
  %8 = getelementptr inbounds nuw %"struct.clang::format::FormatToken", ptr %7, i32 0, i32 34
  %9 = load ptr, ptr %8, align 8
  store ptr %9, ptr %6, align 8
  %10 = load ptr, ptr %4, align 8
  %11 = call noundef zeroext i1 @_ZNK5clang6format11FormatToken2isENS0_9TokenTypeE(ptr noundef nonnull align 8 dereferenceable(305) %10, i8 noundef zeroext 33)
  br i1 %11, label %12, label %19

12:                                               ; preds = %2
  %13 = load ptr, ptr %5, align 8
  %14 = getelementptr inbounds nuw %"struct.clang::format::FormatStyle", ptr %13, i32 0, i32 46
  %15 = load i8, ptr %14, align 8
  %16 = sext i8 %15 to i32
  %17 = icmp eq i32 %16, 1
  br i1 %17, label %18, label %19

18:                                               ; preds = %12
  store i1 true, ptr %3, align 1
  br label %59

19:                                               ; preds = %12, %2
  %20 = load ptr, ptr %5, align 8
  %21 = getelementptr inbounds nuw %"struct.clang::format::FormatStyle", ptr %20, i32 0, i32 85
  %22 = load i8, ptr %21, align 2
  %23 = sext i8 %22 to i32
  %24 = icmp eq i32 %23, 7
  br i1 %24, label %25, label %29

25:                                               ; preds = %19
  %26 = load ptr, ptr %4, align 8
  %27 = call noundef zeroext i1 @_ZNK5clang6format11FormatToken2isENS0_9TokenTypeE(ptr noundef nonnull align 8 dereferenceable(305) %26, i8 noundef zeroext 108)
  br i1 %27, label %28, label %29

28:                                               ; preds = %25
  store i1 true, ptr %3, align 1
  br label %59

29:                                               ; preds = %25, %19
  %30 = load ptr, ptr %6, align 8
  %31 = call noundef zeroext i1 @_ZNK5clang6format11FormatToken2isENS_3tok9TokenKindE(ptr noundef nonnull align 8 dereferenceable(305) %30, i16 noundef zeroext 66)
  br i1 %31, label %32, label %57

32:                                               ; preds = %29
  %33 = load ptr, ptr %4, align 8
  %34 = call noundef zeroext i1 @_ZNK5clang6format11FormatToken17isTrailingCommentEv(ptr noundef nonnull align 8 dereferenceable(305) %33)
  br i1 %34, label %57, label %35

35:                                               ; preds = %32
  %36 = load ptr, ptr %6, align 8
  %37 = call noundef zeroext i1 @_ZNK5clang6format11FormatToken5isNotINS0_9TokenTypeEEEbT_(ptr noundef nonnull align 8 dereferenceable(305) %36, i8 noundef zeroext 33)
  br i1 %37, label %44, label %38

38:                                               ; preds = %35
  %39 = load ptr, ptr %5, align 8
  %40 = getelementptr inbounds nuw %"struct.clang::format::FormatStyle", ptr %39, i32 0, i32 46
  %41 = load i8, ptr %40, align 8
  %42 = sext i8 %41 to i32
  %43 = icmp ne i32 %42, 1
  br i1 %43, label %44, label %55

44:                                               ; preds = %38, %35
  %45 = load ptr, ptr %6, align 8
  %46 = call noundef zeroext i1 @_ZNK5clang6format11FormatToken5isNotINS0_9TokenTypeEEEbT_(ptr noundef nonnull align 8 dereferenceable(305) %45, i8 noundef zeroext 56)
  br i1 %46, label %53, label %47

47:                                               ; preds = %44
  %48 = load ptr, ptr %5, align 8
  %49 = getelementptr inbounds nuw %"struct.clang::format::FormatStyle", ptr %48, i32 0, i32 52
  %50 = load i8, ptr %49, align 8
  %51 = sext i8 %50 to i32
  %52 = icmp ne i32 %51, 1
  br label %53

53:                                               ; preds = %47, %44
  %54 = phi i1 [ true, %44 ], [ %52, %47 ]
  br label %55

55:                                               ; preds = %53, %38
  %56 = phi i1 [ false, %38 ], [ %54, %53 ]
  br label %57

57:                                               ; preds = %55, %32, %29
  %58 = phi i1 [ false, %32 ], [ false, %29 ], [ %56, %55 ]
  store i1 %58, ptr %3, align 1
  br label %59

59:                                               ; preds = %57, %28, %18
  %60 = load i1, ptr %3, align 1
  ret i1 %60
}