; Function Attrs: mustprogress nofree norecurse nosync nounwind willreturn memory(read, inaccessiblemem: none) uwtable
define dso_local noundef zeroext i1 @_ZN5clang6format19startsNextParameterERKNS0_11FormatTokenERKNS0_11FormatStyleE(ptr nocapture noundef nonnull readonly align 8 dereferenceable(305) %0, ptr nocapture noundef nonnull readonly align 8 dereferenceable(936) %1) local_unnamed_addr #5 {
  %3 = getelementptr inbounds nuw i8, ptr %0, i64 208
  %4 = load ptr, ptr %3, align 8
  %5 = getelementptr inbounds nuw i8, ptr %0, i64 67
  %6 = load i8, ptr %5, align 1
  %7 = icmp eq i8 %6, 33
  %8 = getelementptr inbounds nuw i8, ptr %1, i64 152
  %9 = load i8, ptr %8, align 8
  %10 = icmp eq i8 %9, 1
  %or.cond = select i1 %7, i1 %10, i1 false
  br i1 %or.cond, label %_ZNK5clang6format11FormatToken17isTrailingCommentEv.exit.thread, label %11

11:                                               ; preds = %2
  %12 = getelementptr inbounds nuw i8, ptr %1, i64 422
  %13 = load i8, ptr %12, align 2
  %14 = icmp eq i8 %13, 7
  %15 = icmp eq i8 %6, 108
  %or.cond18 = and i1 %15, %14
  br i1 %or.cond18, label %_ZNK5clang6format11FormatToken17isTrailingCommentEv.exit.thread, label %16

16:                                               ; preds = %11
  %17 = getelementptr inbounds nuw i8, ptr %4, i64 16
  %18 = load i16, ptr %17, align 8
  %19 = icmp eq i16 %18, 66
  br i1 %19, label %20, label %_ZNK5clang6format11FormatToken17isTrailingCommentEv.exit.thread

20:                                               ; preds = %16
  %21 = getelementptr inbounds nuw i8, ptr %0, i64 16
  %22 = load i16, ptr %21, align 8
  %23 = icmp eq i16 %22, 4
  br i1 %23, label %24, label %_ZNK5clang6format11FormatToken17isTrailingCommentEv.exit.thread17

24:                                               ; preds = %20
  %25 = icmp eq i8 %6, 75
  br i1 %25, label %_ZNK5clang6format11FormatToken17isTrailingCommentEv.exit.thread, label %26

26:                                               ; preds = %24
  %27 = getelementptr inbounds nuw i8, ptr %0, i64 216
  %28 = load ptr, ptr %27, align 8
  %.not.i = icmp eq ptr %28, null
  br i1 %.not.i, label %_ZNK5clang6format11FormatToken17isTrailingCommentEv.exit.thread, label %_ZNK5clang6format11FormatToken17isTrailingCommentEv.exit

_ZNK5clang6format11FormatToken17isTrailingCommentEv.exit: ; preds = %26
  %29 = getelementptr inbounds nuw i8, ptr %28, i64 72
  %30 = load i32, ptr %29, align 8
  %.not = icmp eq i32 %30, 0
  br i1 %.not, label %_ZNK5clang6format11FormatToken17isTrailingCommentEv.exit.thread17, label %_ZNK5clang6format11FormatToken17isTrailingCommentEv.exit.thread

_ZNK5clang6format11FormatToken17isTrailingCommentEv.exit.thread17: ; preds = %20, %_ZNK5clang6format11FormatToken17isTrailingCommentEv.exit
  %31 = getelementptr inbounds nuw i8, ptr %4, i64 67
  %32 = load i8, ptr %31, align 1
  %.not19 = icmp eq i8 %32, 33
  %or.cond16 = select i1 %.not19, i1 %10, i1 false
  br i1 %or.cond16, label %_ZNK5clang6format11FormatToken17isTrailingCommentEv.exit.thread, label %33

33:                                               ; preds = %_ZNK5clang6format11FormatToken17isTrailingCommentEv.exit.thread17
  %.not20 = icmp eq i8 %32, 56
  br i1 %.not20, label %34, label %_ZNK5clang6format11FormatToken17isTrailingCommentEv.exit.thread

34:                                               ; preds = %33
  %35 = getelementptr inbounds nuw i8, ptr %1, i64 192
  %36 = load i8, ptr %35, align 8
  %37 = icmp ne i8 %36, 1
  br label %_ZNK5clang6format11FormatToken17isTrailingCommentEv.exit.thread

_ZNK5clang6format11FormatToken17isTrailingCommentEv.exit.thread: ; preds = %11, %24, %26, %16, %_ZNK5clang6format11FormatToken17isTrailingCommentEv.exit, %33, %34, %_ZNK5clang6format11FormatToken17isTrailingCommentEv.exit.thread17, %2
  %.0 = phi i1 [ true, %2 ], [ false, %_ZNK5clang6format11FormatToken17isTrailingCommentEv.exit ], [ false, %16 ], [ true, %33 ], [ %37, %34 ], [ false, %_ZNK5clang6format11FormatToken17isTrailingCommentEv.exit.thread17 ], [ false, %26 ], [ false, %24 ], [ true, %11 ]
  ret i1 %.0
}